target datalayout = "e-m:e-p270:32:32-p271:32:32-p272:64:64-i64:64-i128:128-f80:128-n8:16:32:64-S128"
target triple = "x86_64-pc-linux-gnu"

%class.b3Vector3 = type { %union.anon }
%union.anon = type { [4 x float] }
%struct.b3DynamicBvh = type { ptr, ptr, i32, i32, i32, [4 x i8], %class.b3AlignedObjectArray, %class.b3AlignedObjectArray.0 }
%class.b3AlignedObjectArray = type <{ [4 x i8], i32, i32, [4 x i8], ptr, i8, [7 x i8] }>
%class.b3AlignedObjectArray.0 = type <{ [4 x i8], i32, i32, [4 x i8], ptr, i8, [7 x i8] }>
%struct.b3DbvtNode = type { %struct.b3DbvtAabbMm, ptr, %union.anon.4, [8 x i8] }
%struct.b3DbvtAabbMm = type { %class.b3Vector3, %class.b3Vector3 }
%union.anon.4 = type { [2 x ptr] }

; Function Attrs: mustprogress uwtable
define dso_local void @_ZN12b3DynamicBvh6updateEP10b3DbvtNodeR12b3DbvtAabbMm(ptr noundef nonnull align 8 dereferenceable(96) %0, ptr noundef %1, ptr noundef nonnull align 16 dereferenceable(32) %2) #0 align 2 {
  %4 = alloca ptr, align 8
  %5 = alloca ptr, align 8
  %6 = alloca ptr, align 8
  %7 = alloca ptr, align 8
  %8 = alloca i32, align 4
  store ptr %0, ptr %4, align 8, !tbaa !4
  store ptr %1, ptr %5, align 8, !tbaa !28
  store ptr %2, ptr %6, align 8, !tbaa !57
  %9 = load ptr, ptr %4, align 8
  call void @llvm.lifetime.start.p0(i64 8, ptr %7) #12
  %10 = load ptr, ptr %5, align 8, !tbaa !28
  %11 = call noundef ptr @_ZL12b3RemoveLeafP12b3DynamicBvhP10b3DbvtNode(ptr noundef %9, ptr noundef %10)
  store ptr %11, ptr %7, align 8, !tbaa !28
  %12 = load ptr, ptr %7, align 8, !tbaa !28
  %13 = icmp ne ptr %12, null
  br i1 %13, label %14, label %44

14:                                               ; preds = %3
  %15 = getelementptr inbounds nuw %struct.b3DynamicBvh, ptr %9, i32 0, i32 2
  %16 = load i32, ptr %15, align 8, !tbaa !21
  %17 = icmp sge i32 %16, 0
  br i1 %17, label %18, label %40

18:                                               ; preds = %14
  call void @llvm.lifetime.start.p0(i64 4, ptr %8) #12
  store i32 0, ptr %8, align 4, !tbaa !32
  br label %19

19:                                               ; preds = %36, %18
  %20 = load i32, ptr %8, align 4, !tbaa !32
  %21 = getelementptr inbounds nuw %struct.b3DynamicBvh, ptr %9, i32 0, i32 2
  %22 = load i32, ptr %21, align 8, !tbaa !21
  %23 = icmp slt i32 %20, %22
  br i1 %23, label %24, label %29

24:                                               ; preds = %19
  %25 = load ptr, ptr %7, align 8, !tbaa !28
  %26 = getelementptr inbounds nuw %struct.b3DbvtNode, ptr %25, i32 0, i32 1
  %27 = load ptr, ptr %26, align 16, !tbaa !45
  %28 = icmp ne ptr %27, null
  br label %29

29:                                               ; preds = %24, %19
  %30 = phi i1 [ false, %19 ], [ %28, %24 ]
  br i1 %30, label %32, label %31

31:                                               ; preds = %29
  call void @llvm.lifetime.end.p0(i64 4, ptr %8) #12
  br label %39

32:                                               ; preds = %29
  %33 = load ptr, ptr %7, align 8, !tbaa !28
  %34 = getelementptr inbounds nuw %struct.b3DbvtNode, ptr %33, i32 0, i32 1
  %35 = load ptr, ptr %34, align 16, !tbaa !45
  store ptr %35, ptr %7, align 8, !tbaa !28
  br label %36

36:                                               ; preds = %32
  %37 = load i32, ptr %8, align 4, !tbaa !32
  %38 = add nsw i32 %37, 1
  store i32 %38, ptr %8, align 4, !tbaa !32
  br label %19, !llvm.loop !64

39:                                               ; preds = %31
  br label %43

40:                                               ; preds = %14
  %41 = getelementptr inbounds nuw %struct.b3DynamicBvh, ptr %9, i32 0, i32 0
  %42 = load ptr, ptr %41, align 8, !tbaa !9
  store ptr %42, ptr %7, align 8, !tbaa !28
  br label %43

43:                                               ; preds = %40, %39
  br label %44

44:                                               ; preds = %43, %3
  %45 = load ptr, ptr %6, align 8, !tbaa !57
  %46 = load ptr, ptr %5, align 8, !tbaa !28
  %47 = getelementptr inbounds nuw %struct.b3DbvtNode, ptr %46, i32 0, i32 0
  call void @llvm.memcpy.p0.p0.i64(ptr align 16 %47, ptr align 16 %45, i64 32, i1 false), !tbaa.struct !60
  %48 = load ptr, ptr %7, align 8, !tbaa !28
  %49 = load ptr, ptr %5, align 8, !tbaa !28
  call void @_ZL12b3InsertLeafP12b3DynamicBvhP10b3DbvtNodeS2_(ptr noundef %9, ptr noundef %48, ptr noundef %49)
  call void @llvm.lifetime.end.p0(i64 8, ptr %7) #12
  ret void
}