; Function Attrs: mustprogress uwtable
define dso_local void @_ZN12b3DynamicBvh6updateEP10b3DbvtNodeR12b3DbvtAabbMm(ptr noundef nonnull align 8 captures(none) dereferenceable(96) %0, ptr noundef %1, ptr noundef nonnull readonly align 16 captures(none) dereferenceable(32) %2) local_unnamed_addr #2 align 2 {
  %4 = tail call fastcc noundef ptr @_ZL12b3RemoveLeafP12b3DynamicBvhP10b3DbvtNode(ptr noundef %0, ptr noundef %1)
  %.not = icmp eq ptr %4, null
  br i1 %.not, label %.critedge, label %5

5:                                                ; preds = %3
  %6 = getelementptr inbounds nuw i8, ptr %0, i64 16
  %7 = load i32, ptr %6, align 8, !tbaa !23
  %8 = icmp sgt i32 %7, -1
  br i1 %8, label %.preheader, label %13

.preheader:                                       ; preds = %5
  %.not19 = icmp eq i32 %7, 0
  br i1 %.not19, label %.critedge, label %.lr.ph

9:                                                ; preds = %.lr.ph
  %10 = add nuw nsw i32 %.016, 1
  %exitcond.not = icmp eq i32 %10, %7
  br i1 %exitcond.not, label %.critedge, label %.lr.ph, !llvm.loop !73

.lr.ph:                                           ; preds = %.preheader, %9
  %.016 = phi i32 [ %10, %9 ], [ 0, %.preheader ]
  %.115 = phi ptr [ %12, %9 ], [ %4, %.preheader ]
  %11 = getelementptr inbounds nuw i8, ptr %.115, i64 32
  %12 = load ptr, ptr %11, align 16, !tbaa !46
  %.not14 = icmp eq ptr %12, null
  br i1 %.not14, label %.critedge, label %9

13:                                               ; preds = %5
  %14 = load ptr, ptr %0, align 8, !tbaa !28
  br label %.critedge

.critedge:                                        ; preds = %9, %.lr.ph, %.preheader, %13, %3
  %.010 = phi ptr [ %14, %13 ], [ null, %3 ], [ %4, %.preheader ], [ %12, %9 ], [ %.115, %.lr.ph ]
  tail call void @llvm.memcpy.p0.p0.i64(ptr noundef nonnull align 16 dereferenceable(32) %1, ptr noundef nonnull align 16 dereferenceable(32) %2, i64 32, i1 false), !tbaa.struct !59
  tail call fastcc void @_ZL12b3InsertLeafP12b3DynamicBvhP10b3DbvtNodeS2_(ptr noundef %0, ptr noundef %.010, ptr noundef nonnull %1)
  ret void
}